Certificate:
    Data:
        Version: 3 (0x2)
        Serial Number: 4096 (0x1000)
        Signature Algorithm: sha256WithRSAEncryption
        Issuer: C=US, ST=CA, L=San Jose, O=Apigee, OU=Engineering, CN=scaffoldca
        Validity
            Not Before: Nov 10 19:41:12 2016 GMT
            Not After : Mar 27 19:41:12 2044 GMT
        Subject: C=US, ST=CA, O=Apigee, OU=Engineering, CN=clearserver
        Subject Public Key Info:
            Public Key Algorithm: rsaEncryption
            RSA Public Key: (2048 bit)
                Modulus (2048 bit):
                    00:be:8c:c2:24:fe:1f:30:96:62:98:73:b0:00:7c:
                    70:06:33:f9:84:02:7a:b2:53:e4:c3:29:9c:b9:60:
                    57:52:a6:2e:bd:9c:6c:a0:60:0a:fa:06:2b:cc:17:
                    84:98:4c:c6:b8:9e:19:11:e9:08:97:58:6d:41:63:
                    9c:ad:1c:22:3b:d6:a5:a9:7a:5d:00:e7:da:ce:ae:
                    6d:59:32:94:f5:2e:d5:68:aa:9e:30:55:1f:98:8f:
                    b8:1c:b0:6b:cf:a4:cc:f2:3e:56:2e:bb:ed:77:d5:
                    e0:01:65:92:f4:c9:cc:fe:0f:19:ae:5d:cd:8c:46:
                    36:8b:7f:51:0d:19:8f:f6:9b:fb:c5:c9:dc:1c:09:
                    ec:b7:e2:a3:1c:f8:84:bd:ba:2c:7e:ff:f2:13:ad:
                    0d:7e:8a:4f:f7:0a:cb:6b:71:85:e3:2a:d5:4f:b4:
                    4e:1f:f4:27:7b:4f:6c:e1:2b:42:a7:04:d1:d5:37:
                    8f:c5:a1:b3:05:af:ba:08:c1:29:c2:f2:45:ee:0a:
                    ac:9e:61:e6:be:72:ce:1e:5c:54:75:b8:6d:a3:4a:
                    8e:45:a7:86:b4:01:48:e0:00:ff:cf:76:74:d7:34:
                    72:cb:a0:e0:17:10:c7:7d:0a:60:ba:2a:10:80:21:
                    e9:35:82:79:74:01:57:fb:c0:6a:34:ae:2f:19:fa:
                    1a:5b
                Exponent: 65537 (0x10001)
        X509v3 extensions:
            X509v3 Basic Constraints: 
                CA:FALSE
            Netscape Cert Type: 
                SSL Server
            Netscape Comment: 
                OpenSSL Generated Server Certificate
            X509v3 Subject Key Identifier: 
                5B:26:4E:31:7B:83:7A:13:45:F7:D1:AE:BC:E1:7D:16:B9:4B:28:2C
            X509v3 Authority Key Identifier: 
                keyid:40:E7:D1:A4:A4:FC:B4:26:B0:24:DC:4D:A0:7F:4C:CE:B1:53:AC:2B
                DirName:/C=US/ST=CA/L=San Jose/O=Apigee/OU=Engineering/CN=scaffoldca
                serial:F0:4F:F9:FC:E1:F2:CF:40

            X509v3 Key Usage: critical
                Digital Signature, Key Encipherment
            X509v3 Extended Key Usage: 
                TLS Web Server Authentication
    Signature Algorithm: sha256WithRSAEncryption
        1f:74:6d:85:f5:4e:49:0b:98:da:fd:15:40:4f:9d:fe:2d:ea:
        01:96:d9:77:cd:10:eb:99:3f:29:57:2d:c7:bf:01:1c:96:ad:
        1a:3c:54:f0:4d:c4:8b:6d:8d:b8:36:12:f2:08:59:d8:01:5d:
        c8:a9:66:c1:fd:cf:ca:cd:9f:cb:5f:ac:23:c3:ef:e5:f6:b9:
        da:4c:f6:56:fa:6b:9f:93:55:bd:f9:7f:d3:73:96:5d:d0:e6:
        be:07:52:5a:b7:1f:ff:17:1b:38:ac:8b:9f:84:d1:d6:5d:a2:
        9d:fe:04:ac:77:69:77:55:bc:3c:2d:0d:1c:e5:cf:84:00:7b:
        7d:01:04:d8:1f:db:fc:ba:b7:e9:e5:17:08:6d:2c:49:4b:0c:
        08:4f:b4:7c:df:69:ed:6c:75:2f:76:28:e0:80:51:03:69:77:
        67:a5:e3:51:01:b6:3b:df:98:aa:e5:49:2e:1c:6e:d7:c9:fb:
        f9:be:5d:55:63:9c:69:0d:90:90:40:50:2a:77:c3:07:ea:11:
        b1:23:3a:9c:d9:5e:ad:f2:12:fe:e6:37:d3:6f:00:1a:bf:5a:
        aa:d9:8c:d3:17:43:0f:e5:18:0b:7e:09:41:10:9a:64:c4:ad:
        4d:c9:b8:81:df:b9:f8:e2:36:10:80:fc:0a:89:e6:0a:3e:cb:
        fb:a6:a5:44:c3:b3:db:6a:b2:62:f7:a6:ce:6a:2a:64:9a:7b:
        32:ef:33:74:f1:cf:0b:57:50:8d:13:64:bd:26:f9:71:e4:7f:
        ad:a7:9f:b6:3e:b3:a8:42:2b:2e:cb:75:09:4a:ce:ee:ff:04:
        d9:42:4a:cb:0a:8b:82:d0:b2:d9:99:fa:8e:ae:73:cf:fe:8d:
        6a:23:2d:ea:23:ea:c7:b5:d4:81:b8:c5:ac:3a:77:03:53:7c:
        f2:49:f8:46:58:f6:0b:16:09:54:75:5e:0e:3a:96:32:be:8c:
        0e:02:aa:69:34:52:05:0d:d8:6a:67:15:bc:6a:67:07:1d:a5:
        3c:d3:31:39:f9:73:82:d9:57:7f:f2:26:1b:cb:fe:db:db:70:
        89:d5:3c:c8:17:62:93:bc:08:3a:ab:2c:54:03:9f:26:6f:92:
        44:9f:e4:02:e2:5c:59:22:07:d2:ad:e0:1a:e3:7d:8a:d9:2a:
        0b:03:c6:a8:d3:20:13:1a:49:a6:33:cf:66:2e:f7:93:b1:c1:
        1c:ed:2c:6f:59:4a:f0:db:bc:b7:97:8d:69:1d:bf:6b:8b:0a:
        74:be:0b:bf:4b:bb:c3:77:5d:e0:8c:7a:1c:d1:63:6e:93:d4:
        9d:00:19:ef:67:f6:fb:d4:70:68:44:6f:33:7e:b9:3e:65:2f:
        96:eb:e6:d2:35:70:85:f5
-----BEGIN CERTIFICATE-----
MIIFdzCCA1+gAwIBAgICEAAwDQYJKoZIhvcNAQELBQAwaTELMAkGA1UEBhMCVVMx
CzAJBgNVBAgMAkNBMREwDwYDVQQHDAhTYW4gSm9zZTEPMA0GA1UECgwGQXBpZ2Vl
MRQwEgYDVQQLDAtFbmdpbmVlcmluZzETMBEGA1UEAwwKc2NhZmZvbGRjYTAeFw0x
NjExMTAxOTQxMTJaFw00NDAzMjcxOTQxMTJaMFcxCzAJBgNVBAYTAlVTMQswCQYD
VQQIDAJDQTEPMA0GA1UECgwGQXBpZ2VlMRQwEgYDVQQLDAtFbmdpbmVlcmluZzEU
MBIGA1UEAwwLY2xlYXJzZXJ2ZXIwggEiMA0GCSqGSIb3DQEBAQUAA4IBDwAwggEK
AoIBAQC+jMIk/h8wlmKYc7AAfHAGM/mEAnqyU+TDKZy5YFdSpi69nGygYAr6BivM
F4SYTMa4nhkR6QiXWG1BY5ytHCI71qWpel0A59rOrm1ZMpT1LtVoqp4wVR+Yj7gc
sGvPpMzyPlYuu+131eABZZL0ycz+DxmuXc2MRjaLf1ENGY/2m/vFydwcCey34qMc
+IS9uix+//ITrQ1+ik/3CstrcYXjKtVPtE4f9Cd7T2zhK0KnBNHVN4/FobMFr7oI
wSnC8kXuCqyeYea+cs4eXFR1uG2jSo5Fp4a0AUjgAP/PdnTXNHLLoOAXEMd9CmC6
KhCAIek1gnl0AVf7wGo0ri8Z+hpbAgMBAAGjggE5MIIBNTAJBgNVHRMEAjAAMBEG
CWCGSAGG+EIBAQQEAwIGQDAzBglghkgBhvhCAQ0EJhYkT3BlblNTTCBHZW5lcmF0
ZWQgU2VydmVyIENlcnRpZmljYXRlMB0GA1UdDgQWBBRbJk4xe4N6E0X30a684X0W
uUsoLDCBmwYDVR0jBIGTMIGQgBRA59GkpPy0JrAk3E2gf0zOsVOsK6FtpGswaTEL
MAkGA1UEBhMCVVMxCzAJBgNVBAgMAkNBMREwDwYDVQQHDAhTYW4gSm9zZTEPMA0G
A1UECgwGQXBpZ2VlMRQwEgYDVQQLDAtFbmdpbmVlcmluZzETMBEGA1UEAwwKc2Nh
ZmZvbGRjYYIJAPBP+fzh8s9AMA4GA1UdDwEB/wQEAwIFoDATBgNVHSUEDDAKBggr
BgEFBQcDATANBgkqhkiG9w0BAQsFAAOCAgEAH3RthfVOSQuY2v0VQE+d/i3qAZbZ
d80Q65k/KVctx78BHJatGjxU8E3Ei22NuDYS8ghZ2AFdyKlmwf3Pys2fy1+sI8Pv
5fa52kz2Vvprn5NVvfl/03OWXdDmvgdSWrcf/xcbOKyLn4TR1l2inf4ErHdpd1W8
PC0NHOXPhAB7fQEE2B/b/Lq36eUXCG0sSUsMCE+0fN9p7Wx1L3Yo4IBRA2l3Z6Xj
UQG2O9+YquVJLhxu18n7+b5dVWOcaQ2QkEBQKnfDB+oRsSM6nNlerfIS/uY3028A
Gr9aqtmM0xdDD+UYC34JQRCaZMStTcm4gd+5+OI2EID8ConmCj7L+6alRMOz22qy
YvemzmoqZJp7Mu8zdPHPC1dQjRNkvSb5ceR/raeftj6zqEIrLst1CUrO7v8E2UJK
ywqLgtCy2Zn6jq5zz/6NaiMt6iPqx7XUgbjFrDp3A1N88kn4Rlj2CxYJVHVeDjqW
Mr6MDgKqaTRSBQ3YamcVvGpnBx2lPNMxOflzgtlXf/ImG8v+29twidU8yBdik7wI
OqssVAOfJm+SRJ/kAuJcWSIH0q3gGuN9itkqCwPGqNMgExpJpjPPZi73k7HBHO0s
b1lK8Nu8t5eNaR2/a4sKdL4Lv0u7w3dd4Ix6HNFjbpPUnQAZ72f2+9RwaERvM365
PmUvluvm0jVwhfU=
-----END CERTIFICATE-----
