Certificate:
    Data:
        Version: 3 (0x2)
        Serial Number: 4097 (0x1001)
        Signature Algorithm: sha256WithRSAEncryption
        Issuer: C=US, ST=CA, L=San Jose, O=Apigee, OU=Engineering, CN=scaffoldca
        Validity
            Not Before: Nov 10 19:44:24 2016 GMT
            Not After : Mar 27 19:44:24 2044 GMT
        Subject: C=US, ST=CA, O=Apigee, OU=Engineering, CN=securesvr
        Subject Public Key Info:
            Public Key Algorithm: rsaEncryption
            RSA Public Key: (2048 bit)
                Modulus (2048 bit):
                    00:e5:bf:57:39:9b:9f:d6:b3:94:c0:97:ba:1b:45:
                    af:06:cb:74:9d:15:c0:f6:99:43:10:3d:5f:29:51:
                    f6:1b:3d:7a:40:c7:fb:f2:5f:66:9b:e3:fb:a4:a0:
                    3a:c3:93:43:4a:cc:d6:3e:a5:4d:c7:00:e0:82:db:
                    44:79:6e:ad:dc:1f:7a:20:89:cd:e6:4a:d0:f6:9b:
                    70:a6:b2:02:b5:cf:a1:d0:b6:32:20:71:2d:8d:ea:
                    0a:17:aa:87:73:25:6a:23:50:85:c7:0b:d5:ae:c3:
                    1f:4b:2b:3b:d1:51:7c:09:1a:95:4a:f8:a3:89:8b:
                    23:c5:3c:d4:87:84:5a:48:77:c7:39:97:50:84:eb:
                    f1:eb:cd:9c:45:84:6f:91:31:04:a0:2e:60:23:3a:
                    de:b6:5c:01:47:6c:55:a7:45:f9:6b:6c:8d:0a:a3:
                    b9:76:80:e1:2a:29:15:b4:f7:73:f9:7e:e9:c9:0e:
                    6b:10:4b:3d:aa:39:09:07:1c:fe:d3:5a:69:f2:e4:
                    2f:a5:7f:54:f9:d1:68:06:08:3d:f7:81:43:a0:08:
                    c9:90:f6:41:bb:df:1d:ae:e1:c8:8e:51:ae:29:a2:
                    c4:4d:b7:40:20:c9:ba:c3:2d:f9:66:8a:ac:4a:cd:
                    65:81:49:8b:c1:9e:8b:70:ef:d3:0b:e7:3f:b4:1c:
                    32:e9
                Exponent: 65537 (0x10001)
        X509v3 extensions:
            X509v3 Basic Constraints: 
                CA:FALSE
            Netscape Cert Type: 
                SSL Server
            Netscape Comment: 
                OpenSSL Generated Server Certificate
            X509v3 Subject Key Identifier: 
                88:6D:F3:08:34:40:20:72:17:A5:B3:E9:0A:AF:23:9B:88:AE:12:9D
            X509v3 Authority Key Identifier: 
                keyid:40:E7:D1:A4:A4:FC:B4:26:B0:24:DC:4D:A0:7F:4C:CE:B1:53:AC:2B
                DirName:/C=US/ST=CA/L=San Jose/O=Apigee/OU=Engineering/CN=scaffoldca
                serial:F0:4F:F9:FC:E1:F2:CF:40

            X509v3 Key Usage: critical
                Digital Signature, Key Encipherment
            X509v3 Extended Key Usage: 
                TLS Web Server Authentication
    Signature Algorithm: sha256WithRSAEncryption
        39:3d:26:17:10:c4:c8:81:a2:69:aa:66:c2:9f:b3:ca:78:22:
        8b:88:01:23:84:40:4a:ec:07:01:9e:39:04:af:f2:40:c6:35:
        a4:1b:80:3b:13:5c:30:e8:c5:06:74:87:83:50:fd:13:31:87:
        f3:05:c7:99:04:59:54:1a:08:fd:3c:43:d6:8b:d1:b1:10:99:
        83:3c:7b:c0:a8:d0:15:96:c3:ea:a4:f3:40:88:26:e2:ee:1f:
        e7:ad:d8:00:d8:ac:e2:33:ed:18:ea:f9:fb:4a:2f:d8:a9:50:
        fc:88:51:8a:17:14:1f:8c:65:7e:1d:68:0d:63:73:80:f9:a6:
        d7:b4:0d:20:09:ee:8d:1a:ed:a9:7f:8d:78:e8:f2:0c:47:0c:
        9f:4f:0e:0b:a7:66:f1:1c:06:80:bc:2e:c5:b7:b9:2c:37:33:
        d4:8d:2b:1f:9d:2d:13:07:d7:38:8c:c3:a5:aa:18:2f:e7:5b:
        86:48:47:d3:26:63:b3:7e:ee:f3:56:e1:57:5e:08:41:a7:76:
        00:c5:54:d6:23:a6:dc:4c:01:31:ad:e8:70:34:cd:89:fc:b7:
        7e:73:b0:00:da:8a:d3:f9:8f:0e:12:8c:4a:95:42:4e:a6:52:
        95:5e:08:af:69:54:e2:17:3b:d3:c3:3a:60:85:56:6b:e9:a4:
        64:f5:0a:d3:9a:ac:30:38:c9:80:cd:be:b1:22:83:7f:45:d7:
        b4:7a:78:de:bc:45:5f:19:ef:50:2f:bf:72:51:be:ca:72:48:
        d8:53:3c:f3:79:71:79:72:96:c9:29:96:60:0a:eb:26:1a:08:
        b5:28:54:55:af:c9:59:64:89:ab:1f:81:4c:8f:3d:24:b4:9c:
        3e:28:a8:0a:93:ea:33:dd:24:a4:12:0a:a5:21:55:51:4a:8e:
        6d:b9:a3:f6:a2:d0:fe:ba:d5:60:70:0b:4f:79:76:3f:09:47:
        9a:de:66:e7:df:76:49:0e:db:74:e1:64:9e:ee:8a:4c:57:80:
        fd:13:08:e7:5d:90:c0:a4:dd:99:db:aa:bd:ee:ca:24:1d:ad:
        51:10:d3:cf:5c:da:e1:af:f1:c4:d1:87:40:8b:d9:b3:c3:72:
        9e:24:a4:1e:5a:ec:e4:31:b1:4e:55:ba:c6:55:af:22:1a:62:
        f2:d1:16:4b:ee:ef:c0:d4:62:85:e3:28:70:e0:1b:1e:8f:e5:
        bd:36:5d:2b:c7:5a:67:88:c8:9b:5f:55:93:af:62:c2:d9:99:
        6d:bc:04:66:00:aa:2d:85:dc:3a:85:3c:8f:c2:3c:b5:7d:16:
        36:d6:a3:cc:96:03:67:a7:c3:71:75:2b:71:b4:4f:06:37:15:
        2d:d3:44:7a:78:71:53:70
-----BEGIN CERTIFICATE-----
MIIFdTCCA12gAwIBAgICEAEwDQYJKoZIhvcNAQELBQAwaTELMAkGA1UEBhMCVVMx
CzAJBgNVBAgMAkNBMREwDwYDVQQHDAhTYW4gSm9zZTEPMA0GA1UECgwGQXBpZ2Vl
MRQwEgYDVQQLDAtFbmdpbmVlcmluZzETMBEGA1UEAwwKc2NhZmZvbGRjYTAeFw0x
NjExMTAxOTQ0MjRaFw00NDAzMjcxOTQ0MjRaMFUxCzAJBgNVBAYTAlVTMQswCQYD
VQQIDAJDQTEPMA0GA1UECgwGQXBpZ2VlMRQwEgYDVQQLDAtFbmdpbmVlcmluZzES
MBAGA1UEAwwJc2VjdXJlc3ZyMIIBIjANBgkqhkiG9w0BAQEFAAOCAQ8AMIIBCgKC
AQEA5b9XOZuf1rOUwJe6G0WvBst0nRXA9plDED1fKVH2Gz16QMf78l9mm+P7pKA6
w5NDSszWPqVNxwDggttEeW6t3B96IInN5krQ9ptwprICtc+h0LYyIHEtjeoKF6qH
cyVqI1CFxwvVrsMfSys70VF8CRqVSvijiYsjxTzUh4RaSHfHOZdQhOvx682cRYRv
kTEEoC5gIzretlwBR2xVp0X5a2yNCqO5doDhKikVtPdz+X7pyQ5rEEs9qjkJBxz+
01pp8uQvpX9U+dFoBgg994FDoAjJkPZBu98druHIjlGuKaLETbdAIMm6wy35Zoqs
Ss1lgUmLwZ6LcO/TC+c/tBwy6QIDAQABo4IBOTCCATUwCQYDVR0TBAIwADARBglg
hkgBhvhCAQEEBAMCBkAwMwYJYIZIAYb4QgENBCYWJE9wZW5TU0wgR2VuZXJhdGVk
IFNlcnZlciBDZXJ0aWZpY2F0ZTAdBgNVHQ4EFgQUiG3zCDRAIHIXpbPpCq8jm4iu
Ep0wgZsGA1UdIwSBkzCBkIAUQOfRpKT8tCawJNxNoH9MzrFTrCuhbaRrMGkxCzAJ
BgNVBAYTAlVTMQswCQYDVQQIDAJDQTERMA8GA1UEBwwIU2FuIEpvc2UxDzANBgNV
BAoMBkFwaWdlZTEUMBIGA1UECwwLRW5naW5lZXJpbmcxEzARBgNVBAMMCnNjYWZm
b2xkY2GCCQDwT/n84fLPQDAOBgNVHQ8BAf8EBAMCBaAwEwYDVR0lBAwwCgYIKwYB
BQUHAwEwDQYJKoZIhvcNAQELBQADggIBADk9JhcQxMiBommqZsKfs8p4IouIASOE
QErsBwGeOQSv8kDGNaQbgDsTXDDoxQZ0h4NQ/RMxh/MFx5kEWVQaCP08Q9aL0bEQ
mYM8e8Co0BWWw+qk80CIJuLuH+et2ADYrOIz7Rjq+ftKL9ipUPyIUYoXFB+MZX4d
aA1jc4D5pte0DSAJ7o0a7al/jXjo8gxHDJ9PDgunZvEcBoC8LsW3uSw3M9SNKx+d
LRMH1ziMw6WqGC/nW4ZIR9MmY7N+7vNW4VdeCEGndgDFVNYjptxMATGt6HA0zYn8
t35zsADaitP5jw4SjEqVQk6mUpVeCK9pVOIXO9PDOmCFVmvppGT1CtOarDA4yYDN
vrEig39F17R6eN68RV8Z71Avv3JRvspySNhTPPN5cXlylskplmAK6yYaCLUoVFWv
yVlkiasfgUyPPSS0nD4oqAqT6jPdJKQSCqUhVVFKjm25o/ai0P661WBwC095dj8J
R5reZuffdkkO23ThZJ7uikxXgP0TCOddkMCk3Znbqr3uyiQdrVEQ089c2uGv8cTR
h0CL2bPDcp4kpB5a7OQxsU5VusZVryIaYvLRFkvu78DUYoXjKHDgGx6P5b02XSvH
WmeIyJtfVZOvYsLZmW28BGYAqi2F3DqFPI/CPLV9FjbWo8yWA2enw3F1K3G0TwY3
FS3TRHp4cVNw
-----END CERTIFICATE-----
